target datalayout = "e-m:e-p270:32:32-p271:32:32-p272:64:64-i64:64-i128:128-f80:128-n8:16:32:64-S128"
target triple = "x86_64-pc-linux-gnu"

%struct.Curl_llist = type { ptr, ptr, ptr, i64 }
%struct.curltime = type { i64, i32 }
%struct.Curl_llist_node = type { ptr, ptr, ptr, ptr }
%struct.Curl_easy = type { i32, i64, i64, ptr, %struct.Curl_llist_node, %struct.Curl_llist_node, i32, i32, %struct.Curl_message, %struct.easy_pollset, %struct.Names, ptr, ptr, ptr, ptr, %struct.SingleRequest, %struct.UserDefined, ptr, ptr, ptr, %struct.Progress, %struct.UrlState, ptr, %struct.PureInfo, %struct.curl_tlssessioninfo }
%struct.Curl_message = type { %struct.Curl_llist_node, %struct.CURLMsg }
%struct.CURLMsg = type { i32, ptr, %union.anon }
%union.anon = type { ptr }
%struct.easy_pollset = type { [5 x i32], i32, [5 x i8] }
%struct.Names = type { ptr, i32 }
%struct.SingleRequest = type <{ i64, i64, i64, i64, %struct.curltime, i32, i32, i32, i32, i64, i32, i32, i8, i8, [2 x i8], i32, ptr, ptr, %struct.bufq, i64, i64, ptr, ptr, %union.anon.0, ptr, i8, i32, [3 x i8] }>
%struct.bufq = type { ptr, ptr, ptr, ptr, i64, i64, i64, i32 }
%union.anon.0 = type { ptr }
%struct.UserDefined = type <{ ptr, ptr, ptr, ptr, ptr, ptr, i64, i64, i64, ptr, ptr, i64, ptr, ptr, ptr, ptr, ptr, ptr, ptr, ptr, ptr, ptr, ptr, ptr, ptr, ptr, ptr, ptr, ptr, ptr, ptr, ptr, ptr, ptr, ptr, i64, i64, i64, i64, i64, i64, i64, i64, i64, ptr, ptr, %struct.curl_mimepart, ptr, ptr, ptr, i64, %struct.ssl_config_data, %struct.ssl_config_data, ptr, i16, i8, i8, %struct.ssl_general_config, i32, i32, i32, [4 x i8], ptr, ptr, i64, i32, i8, i8, i8, i8, ptr, ptr, ptr, i32, [4 x i8], [74 x ptr], [8 x ptr], i32, i32, i32, [4 x i8], ptr, i32, [4 x i8], ptr, ptr, ptr, ptr, ptr, i32, i32, i32, i32, i32, i32, i32, i32, i64, ptr, ptr, i64, ptr, i64, ptr, ptr, ptr, ptr, i32, i16, i16, i16, i8, i8, i8, i8, i8, i8, i8, i8, i64, [6 x i8] }>
%struct.curl_mimepart = type { ptr, ptr, i32, i32, ptr, ptr, ptr, ptr, ptr, ptr, ptr, ptr, ptr, ptr, ptr, i64, %struct.mime_state, ptr, %struct.mime_encoder_state, i64 }
%struct.mime_state = type { i32, ptr, i64 }
%struct.mime_encoder_state = type { i64, i64, i64, [256 x i8] }
%struct.ssl_config_data = type { %struct.ssl_primary_config, i64, ptr, ptr, ptr, ptr, ptr, ptr, ptr, i16 }
%struct.ssl_primary_config = type { ptr, ptr, ptr, ptr, ptr, ptr, ptr, ptr, ptr, ptr, ptr, ptr, ptr, ptr, i8, i32, i8, i8 }
%struct.ssl_general_config = type { i32 }
%struct.Progress = type { i64, %struct.pgrs_dir, %struct.pgrs_dir, i64, i64, i32, i32, i64, i64, i64, i64, i64, i64, i64, i64, i64, %struct.curltime, %struct.curltime, %struct.curltime, %struct.curltime, %struct.curltime, [6 x i64], [6 x %struct.curltime], i32, i8 }
%struct.pgrs_dir = type { i64, i64, i64, %struct.pgrs_measure }
%struct.pgrs_measure = type { %struct.curltime, i64 }
%struct.UrlState = type { %struct.curltime, i64, i64, %struct.dynbuf, ptr, i64, ptr, i32, i32, i32, ptr, i32, i64, i32, ptr, %struct.digestdata, %struct.digestdata, %struct.auth, %struct.auth, %struct.Curl_async, ptr, i8, %struct.curltime, %struct.Curl_tree, %struct.Curl_llist, [15 x %struct.time_node], ptr, ptr, i64, i64, i64, i64, [32 x i8], i64, ptr, ptr, ptr, %struct.urlpieces, ptr, ptr, ptr, ptr, ptr, i64, %struct.dynbuf, %struct.Curl_llist, [2 x %struct.curl_header], ptr, i32, ptr, ptr, %struct.store_netrc, %struct.dynamically_allocated_data, i8, i8, i8, i8, i32 }
%struct.digestdata = type { ptr, ptr, ptr, ptr, ptr, ptr, i32, i8, i8 }
%struct.auth = type { i64, i64, i64, i8 }
%struct.Curl_async = type { ptr, ptr, ptr, ptr, i32, i32, i8 }
%struct.Curl_tree = type { ptr, ptr, ptr, ptr, %struct.curltime, ptr }
%struct.time_node = type { %struct.Curl_llist_node, %struct.curltime, i32 }
%struct.urlpieces = type { ptr, ptr, ptr, ptr, ptr, ptr, ptr, ptr }
%struct.dynbuf = type { ptr, i64, i64, i64 }
%struct.curl_header = type { ptr, ptr, i64, i64, i32, ptr }
%struct.store_netrc = type { %struct.dynbuf, ptr, i8 }
%struct.dynamically_allocated_data = type { ptr, ptr, ptr, ptr, ptr, ptr, ptr, ptr, ptr, ptr, ptr, ptr, ptr, ptr }
%struct.PureInfo = type { i32, i32, i32, i64, i64, i64, i64, i64, i64, i64, ptr, ptr, i64, i32, %struct.ip_quadruple, i32, ptr, i32, %struct.curl_certinfo, i32, i8 }
%struct.ip_quadruple = type { [46 x i8], [46 x i8], i32, i32 }
%struct.curl_certinfo = type { i32, ptr }
%struct.curl_tlssessioninfo = type { i32, ptr }
%struct.multi_done_ctx = type { i8, [3 x i8] }
%struct.connectdata = type { %struct.Curl_llist_node, ptr, ptr, i64, ptr, i64, ptr, ptr, %struct.hostname, ptr, ptr, %struct.hostname, %struct.proxy_info, %struct.proxy_info, %struct.ip_quadruple, %struct.ip_quadruple, ptr, ptr, ptr, ptr, ptr, %struct.curltime, %struct.curltime, %struct.curltime, [2 x i32], [2 x ptr], [2 x ptr], [2 x ptr], %struct.anon, %struct.easy_pollset, %struct.ssl_primary_config, %struct.ssl_primary_config, %struct.ConnectBits, ptr, ptr, %struct.curltime, i32, i32, %struct.Curl_llist, i32, i32, %struct.ntlmdata, %struct.ntlmdata, %union.anon.1, ptr, ptr, i16, i32, i32, i32, i32, i16, i16, i8, i8, i8, i8, i8, i8, i8 }
%struct.hostname = type { ptr, ptr, ptr, ptr }
%struct.proxy_info = type { %struct.hostname, i32, i8, ptr, ptr }
%struct.anon = type { [2 x %struct.curltime], i32 }
%struct.ConnectBits = type { i64 }
%struct.ntlmdata = type { i32, [8 x i8], i32, ptr }
%union.anon.1 = type { %struct.ftp_conn }
%struct.ftp_conn = type { %struct.pingpong, ptr, ptr, ptr, ptr, ptr, ptr, ptr, i8, i64, ptr, i64, i32, i32, i32, i32, i32, i16, i8, i8, i8, i8, i8 }
%struct.pingpong = type { i64, i8, ptr, i64, i64, %struct.curltime, i64, %struct.dynbuf, %struct.dynbuf, i64, i64, ptr, ptr }
%struct.Curl_handler = type { ptr, ptr, ptr, ptr, ptr, ptr, ptr, ptr, ptr, ptr, ptr, ptr, ptr, ptr, ptr, ptr, ptr, ptr, i32, i32, i32, i32 }

@Curl_cfree = external global ptr, align 8

; Function Attrs: nounwind uwtable
define internal i32 @multi_done(ptr noundef %0, i32 noundef %1, i1 noundef zeroext %2) #0 {
  %4 = alloca i32, align 4
  %5 = alloca ptr, align 8
  %6 = alloca i32, align 4
  %7 = alloca i8, align 1
  %8 = alloca i32, align 4
  %9 = alloca i32, align 4
  %10 = alloca ptr, align 8
  %11 = alloca %struct.multi_done_ctx, align 4
  %12 = alloca i32, align 4
  %13 = alloca i32, align 4
  store ptr %0, ptr %5, align 8, !tbaa !43
  store i32 %1, ptr %6, align 4, !tbaa !30
  %14 = zext i1 %2 to i8
  store i8 %14, ptr %7, align 1, !tbaa !118
  call void @llvm.lifetime.start.p0(i64 4, ptr %8) #9
  call void @llvm.lifetime.start.p0(i64 4, ptr %9) #9
  call void @llvm.lifetime.start.p0(i64 8, ptr %10) #9
  %15 = load ptr, ptr %5, align 8, !tbaa !43
  %16 = getelementptr inbounds nuw %struct.Curl_easy, ptr %15, i32 0, i32 3
  %17 = load ptr, ptr %16, align 8, !tbaa !116
  store ptr %17, ptr %10, align 8, !tbaa !126
  call void @llvm.lifetime.start.p0(i64 4, ptr %11) #9
  call void @llvm.memset.p0.i64(ptr align 4 %11, i8 0, i64 4, i1 false)
  br label %18

18:                                               ; preds = %3
  br label %19

19:                                               ; preds = %18
  br label %20

20:                                               ; preds = %19
  %21 = load ptr, ptr %5, align 8, !tbaa !43
  %22 = getelementptr inbounds nuw %struct.Curl_easy, ptr %21, i32 0, i32 21
  %23 = getelementptr inbounds nuw %struct.UrlState, ptr %22, i32 0, i32 57
  %24 = load i32, ptr %23, align 4
  %25 = lshr i32 %24, 12
  %26 = and i32 %25, 1
  %27 = icmp ne i32 %26, 0
  br i1 %27, label %28, label %29

28:                                               ; preds = %20
  store i32 0, ptr %4, align 4
  store i32 1, ptr %12, align 4
  br label %134

29:                                               ; preds = %20
  %30 = load ptr, ptr %5, align 8, !tbaa !43
  call void @Curl_resolver_kill(ptr noundef %30)
  br label %31

31:                                               ; preds = %29
  %32 = load ptr, ptr @Curl_cfree, align 8, !tbaa !7
  %33 = load ptr, ptr %5, align 8, !tbaa !43
  %34 = getelementptr inbounds nuw %struct.Curl_easy, ptr %33, i32 0, i32 15
  %35 = getelementptr inbounds nuw %struct.SingleRequest, ptr %34, i32 0, i32 22
  %36 = load ptr, ptr %35, align 8, !tbaa !132
  call void %32(ptr noundef %36)
  %37 = load ptr, ptr %5, align 8, !tbaa !43
  %38 = getelementptr inbounds nuw %struct.Curl_easy, ptr %37, i32 0, i32 15
  %39 = getelementptr inbounds nuw %struct.SingleRequest, ptr %38, i32 0, i32 22
  store ptr null, ptr %39, align 8, !tbaa !132
  br label %40

40:                                               ; preds = %31
  br label %41

41:                                               ; preds = %40
  br label %42

42:                                               ; preds = %41
  %43 = load ptr, ptr @Curl_cfree, align 8, !tbaa !7
  %44 = load ptr, ptr %5, align 8, !tbaa !43
  %45 = getelementptr inbounds nuw %struct.Curl_easy, ptr %44, i32 0, i32 15
  %46 = getelementptr inbounds nuw %struct.SingleRequest, ptr %45, i32 0, i32 21
  %47 = load ptr, ptr %46, align 8, !tbaa !133
  call void %43(ptr noundef %47)
  %48 = load ptr, ptr %5, align 8, !tbaa !43
  %49 = getelementptr inbounds nuw %struct.Curl_easy, ptr %48, i32 0, i32 15
  %50 = getelementptr inbounds nuw %struct.SingleRequest, ptr %49, i32 0, i32 21
  store ptr null, ptr %50, align 8, !tbaa !133
  br label %51

51:                                               ; preds = %42
  br label %52

52:                                               ; preds = %51
  %53 = load i32, ptr %6, align 4, !tbaa !30
  switch i32 %53, label %55 [
    i32 42, label %54
    i32 26, label %54
    i32 23, label %54
  ]

54:                                               ; preds = %52, %52, %52
  store i8 1, ptr %7, align 1, !tbaa !118
  br label %55

55:                                               ; preds = %52, %54
  br label %56

56:                                               ; preds = %55
  %57 = load ptr, ptr %10, align 8, !tbaa !126
  %58 = getelementptr inbounds nuw %struct.connectdata, ptr %57, i32 0, i32 33
  %59 = load ptr, ptr %58, align 8, !tbaa !134
  %60 = getelementptr inbounds nuw %struct.Curl_handler, ptr %59, i32 0, i32 3
  %61 = load ptr, ptr %60, align 8, !tbaa !143
  %62 = icmp ne ptr %61, null
  br i1 %62, label %63, label %74

63:                                               ; preds = %56
  %64 = load ptr, ptr %10, align 8, !tbaa !126
  %65 = getelementptr inbounds nuw %struct.connectdata, ptr %64, i32 0, i32 33
  %66 = load ptr, ptr %65, align 8, !tbaa !134
  %67 = getelementptr inbounds nuw %struct.Curl_handler, ptr %66, i32 0, i32 3
  %68 = load ptr, ptr %67, align 8, !tbaa !143
  %69 = load ptr, ptr %5, align 8, !tbaa !43
  %70 = load i32, ptr %6, align 4, !tbaa !30
  %71 = load i8, ptr %7, align 1, !tbaa !118, !range !120, !noundef !121
  %72 = trunc i8 %71 to i1
  %73 = call i32 %68(ptr noundef %69, i32 noundef %70, i1 noundef zeroext %72)
  store i32 %73, ptr %8, align 4, !tbaa !30
  br label %76

74:                                               ; preds = %56
  %75 = load i32, ptr %6, align 4, !tbaa !30
  store i32 %75, ptr %8, align 4, !tbaa !30
  br label %76

76:                                               ; preds = %74, %63
  %77 = load i32, ptr %8, align 4, !tbaa !30
  %78 = icmp ne i32 42, %77
  br i1 %78, label %79, label %89

79:                                               ; preds = %76
  call void @llvm.lifetime.start.p0(i64 4, ptr %13) #9
  %80 = load ptr, ptr %5, align 8, !tbaa !43
  %81 = call i32 @Curl_pgrsDone(ptr noundef %80)
  store i32 %81, ptr %13, align 4, !tbaa !30
  %82 = load i32, ptr %8, align 4, !tbaa !30
  %83 = icmp ne i32 %82, 0
  br i1 %83, label %88, label %84

84:                                               ; preds = %79
  %85 = load i32, ptr %13, align 4, !tbaa !30
  %86 = icmp ne i32 %85, 0
  br i1 %86, label %87, label %88

87:                                               ; preds = %84
  store i32 42, ptr %8, align 4, !tbaa !30
  br label %88

88:                                               ; preds = %87, %84, %79
  call void @llvm.lifetime.end.p0(i64 4, ptr %13) #9
  br label %89

89:                                               ; preds = %88, %76
  %90 = load ptr, ptr %5, align 8, !tbaa !43
  %91 = load i8, ptr %7, align 1, !tbaa !118, !range !120, !noundef !121
  %92 = trunc i8 %91 to i1
  %93 = call i32 @Curl_xfer_write_done(ptr noundef %90, i1 noundef zeroext %92)
  store i32 %93, ptr %9, align 4, !tbaa !30
  %94 = load i32, ptr %9, align 4, !tbaa !30
  %95 = icmp ne i32 %94, 0
  br i1 %95, label %96, label %101

96:                                               ; preds = %89
  %97 = load i32, ptr %8, align 4, !tbaa !30
  %98 = icmp ne i32 %97, 0
  br i1 %98, label %101, label %99

99:                                               ; preds = %96
  %100 = load i32, ptr %9, align 4, !tbaa !30
  store i32 %100, ptr %8, align 4, !tbaa !30
  br label %101

101:                                              ; preds = %99, %96, %89
  %102 = load ptr, ptr %5, align 8, !tbaa !43
  %103 = load i8, ptr %7, align 1, !tbaa !118, !range !120, !noundef !121
  %104 = trunc i8 %103 to i1
  call void @Curl_conn_ev_data_done(ptr noundef %102, i1 noundef zeroext %104)
  %105 = load ptr, ptr %5, align 8, !tbaa !43
  %106 = getelementptr inbounds nuw %struct.Curl_easy, ptr %105, i32 0, i32 11
  %107 = load ptr, ptr %106, align 8, !tbaa !100
  call void @process_pending_handles(ptr noundef %107)
  %108 = load i32, ptr %8, align 4, !tbaa !30
  %109 = icmp ne i32 %108, 0
  br i1 %109, label %117, label %110

110:                                              ; preds = %101
  %111 = load ptr, ptr %5, align 8, !tbaa !43
  %112 = getelementptr inbounds nuw %struct.Curl_easy, ptr %111, i32 0, i32 15
  %113 = load ptr, ptr %5, align 8, !tbaa !43
  %114 = load i8, ptr %7, align 1, !tbaa !118, !range !120, !noundef !121
  %115 = trunc i8 %114 to i1
  %116 = call i32 @Curl_req_done(ptr noundef %112, ptr noundef %113, i1 noundef zeroext %115)
  store i32 %116, ptr %8, align 4, !tbaa !30
  br label %117

117:                                              ; preds = %110, %101
  %118 = load i8, ptr %7, align 1, !tbaa !118, !range !120, !noundef !121
  %119 = trunc i8 %118 to i1
  %120 = zext i1 %119 to i32
  %121 = trunc i32 %120 to i8
  %122 = load i8, ptr %11, align 4
  %123 = and i8 %121, 1
  %124 = and i8 %122, -2
  %125 = or i8 %124, %123
  store i8 %125, ptr %11, align 4
  %126 = load ptr, ptr %5, align 8, !tbaa !43
  %127 = load ptr, ptr %5, align 8, !tbaa !43
  %128 = getelementptr inbounds nuw %struct.Curl_easy, ptr %127, i32 0, i32 3
  %129 = load ptr, ptr %128, align 8, !tbaa !116
  call void @Curl_cpool_do_locked(ptr noundef %126, ptr noundef %129, ptr noundef @multi_done_locked, ptr noundef %11)
  %130 = load ptr, ptr %5, align 8, !tbaa !43
  %131 = getelementptr inbounds nuw %struct.Curl_easy, ptr %130, i32 0, i32 21
  %132 = getelementptr inbounds nuw %struct.UrlState, ptr %131, i32 0, i32 51
  call void @Curl_netrc_cleanup(ptr noundef %132)
  %133 = load i32, ptr %8, align 4, !tbaa !30
  store i32 %133, ptr %4, align 4
  store i32 1, ptr %12, align 4
  br label %134

134:                                              ; preds = %117, %28
  call void @llvm.lifetime.end.p0(i64 4, ptr %11) #9
  call void @llvm.lifetime.end.p0(i64 8, ptr %10) #9
  call void @llvm.lifetime.end.p0(i64 4, ptr %9) #9
  call void @llvm.lifetime.end.p0(i64 4, ptr %8) #9
  %135 = load i32, ptr %4, align 4
  ret i32 %135
}