; Function Attrs: nounwind uwtable
define internal fastcc i32 @multi_done(ptr noundef %0, i32 noundef %1, i1 noundef zeroext %2) unnamed_addr #0 {
  %4 = alloca %struct.multi_done_ctx, align 4
  %5 = getelementptr inbounds nuw i8, ptr %0, i64 24
  %6 = load ptr, ptr %5, align 8, !tbaa !109
  call void @llvm.lifetime.start.p0(i64 4, ptr nonnull %4) #19
  store i32 0, ptr %4, align 4
  %7 = getelementptr inbounds nuw i8, ptr %0, i64 5036
  %8 = load i32, ptr %7, align 4
  %9 = and i32 %8, 4096
  %.not = icmp eq i32 %9, 0
  br i1 %.not, label %10, label %43

10:                                               ; preds = %3
  tail call void @Curl_resolver_kill(ptr noundef nonnull %0) #19
  %11 = load ptr, ptr @Curl_cfree, align 8, !tbaa !3
  %12 = getelementptr inbounds nuw i8, ptr %0, i64 240
  %13 = getelementptr inbounds nuw i8, ptr %0, i64 432
  %14 = load ptr, ptr %13, align 8, !tbaa !122
  tail call void %11(ptr noundef %14) #19
  store ptr null, ptr %13, align 8, !tbaa !122
  %15 = load ptr, ptr @Curl_cfree, align 8, !tbaa !3
  %16 = getelementptr inbounds nuw i8, ptr %0, i64 424
  %17 = load ptr, ptr %16, align 8, !tbaa !123
  tail call void %15(ptr noundef %17) #19
  store ptr null, ptr %16, align 8, !tbaa !123
  switch i32 %1, label %19 [
    i32 42, label %18
    i32 26, label %18
    i32 23, label %18
  ]

18:                                               ; preds = %10, %10, %10
  br label %19

19:                                               ; preds = %10, %18
  %.038 = phi i1 [ %2, %10 ], [ true, %18 ]
  %20 = getelementptr inbounds nuw i8, ptr %6, i64 960
  %21 = load ptr, ptr %20, align 8, !tbaa !124
  %22 = getelementptr inbounds nuw i8, ptr %21, i64 24
  %23 = load ptr, ptr %22, align 8, !tbaa !133
  %.not42 = icmp eq ptr %23, null
  br i1 %.not42, label %26, label %24

24:                                               ; preds = %19
  %25 = tail call i32 %23(ptr noundef nonnull %0, i32 noundef %1, i1 noundef zeroext %.038) #19
  br label %26

26:                                               ; preds = %19, %24
  %.039 = phi i32 [ %25, %24 ], [ %1, %19 ]
  %.not43 = icmp eq i32 %.039, 42
  br i1 %.not43, label %31, label %27

27:                                               ; preds = %26
  %28 = tail call i32 @Curl_pgrsDone(ptr noundef nonnull %0) #19
  %29 = icmp eq i32 %.039, 0
  %30 = icmp ne i32 %28, 0
  %or.cond = select i1 %29, i1 %30, i1 false
  %spec.store.select = select i1 %or.cond, i32 42, i32 %.039
  br label %31

31:                                               ; preds = %27, %26
  %.1 = phi i32 [ %spec.store.select, %27 ], [ 42, %26 ]
  %32 = tail call i32 @Curl_xfer_write_done(ptr noundef nonnull %0, i1 noundef zeroext %.038) #19
  %33 = icmp eq i32 %32, 0
  %34 = icmp ne i32 %.1, 0
  %or.cond3 = select i1 %33, i1 true, i1 %34
  %spec.select = select i1 %or.cond3, i32 %.1, i32 %32
  tail call void @Curl_conn_ev_data_done(ptr noundef nonnull %0, i1 noundef zeroext %.038) #19
  %35 = getelementptr inbounds nuw i8, ptr %0, i64 208
  %36 = load ptr, ptr %35, align 8, !tbaa !92
  tail call fastcc void @process_pending_handles(ptr noundef %36)
  %.not44 = icmp eq i32 %spec.select, 0
  br i1 %.not44, label %37, label %39

37:                                               ; preds = %31
  %38 = tail call i32 @Curl_req_done(ptr noundef nonnull %12, ptr noundef nonnull %0, i1 noundef zeroext %.038) #19
  br label %39

39:                                               ; preds = %37, %31
  %.3 = phi i32 [ %spec.select, %31 ], [ %38, %37 ]
  %40 = zext i1 %.038 to i8
  store i8 %40, ptr %4, align 4
  %41 = load ptr, ptr %5, align 8, !tbaa !109
  call void @Curl_cpool_do_locked(ptr noundef nonnull %0, ptr noundef %41, ptr noundef nonnull @multi_done_locked, ptr noundef nonnull %4) #19
  %42 = getelementptr inbounds nuw i8, ptr %0, i64 4872
  call void @Curl_netrc_cleanup(ptr noundef nonnull %42) #19
  br label %43

43:                                               ; preds = %3, %39
  %.0 = phi i32 [ %.3, %39 ], [ 0, %3 ]
  call void @llvm.lifetime.end.p0(i64 4, ptr nonnull %4) #19
  ret i32 %.0
}